target datalayout = "e-m:e-p270:32:32-p271:32:32-p272:64:64-i64:64-i128:128-f80:128-n8:16:32:64-S128"
target triple = "x86_64-pc-linux-gnu"

%class.DataHash = type { i32, i32, ptr }
%struct.blake2sp_state = type { [8 x %struct.blake2s_state], %struct.blake2s_state, [512 x i8], i64 }
%struct.blake2s_state = type <{ [240 x i8], ptr, ptr, ptr, ptr, i64, i8, [7 x i8] }>

; Function Attrs: mustprogress nounwind uwtable
define linkonce_odr void @_ZN13blake2s_state12set_pointersEv(ptr noundef nonnull align 8 dereferenceable(281) %0) #0 comdat align 2 {
  %2 = alloca ptr, align 8
  store ptr %0, ptr %2, align 8
  %3 = load ptr, ptr %2, align 8
  %4 = getelementptr inbounds %struct.blake2s_state, ptr %3, i32 0, i32 0
  %5 = getelementptr inbounds [240 x i8], ptr %4, i64 0, i64 0
  %6 = ptrtoint ptr %5 to i64
  %7 = getelementptr inbounds %struct.blake2s_state, ptr %3, i32 0, i32 0
  %8 = getelementptr inbounds [240 x i8], ptr %7, i64 0, i64 0
  %9 = ptrtoint ptr %8 to i64
  %10 = xor i64 %9, -1
  %11 = add i64 %10, 1
  %12 = and i64 %11, 63
  %13 = add i64 %6, %12
  %14 = inttoptr i64 %13 to ptr
  %15 = getelementptr inbounds %struct.blake2s_state, ptr %3, i32 0, i32 1
  store ptr %14, ptr %15, align 8
  %16 = getelementptr inbounds %struct.blake2s_state, ptr %3, i32 0, i32 1
  %17 = load ptr, ptr %16, align 8
  %18 = getelementptr inbounds i8, ptr %17, i64 128
  %19 = getelementptr inbounds %struct.blake2s_state, ptr %3, i32 0, i32 2
  store ptr %18, ptr %19, align 8
  %20 = getelementptr inbounds %struct.blake2s_state, ptr %3, i32 0, i32 2
  %21 = load ptr, ptr %20, align 8
  %22 = getelementptr inbounds i32, ptr %21, i64 8
  %23 = getelementptr inbounds %struct.blake2s_state, ptr %3, i32 0, i32 3
  store ptr %22, ptr %23, align 8
  %24 = getelementptr inbounds %struct.blake2s_state, ptr %3, i32 0, i32 3
  %25 = load ptr, ptr %24, align 8
  %26 = getelementptr inbounds i32, ptr %25, i64 2
  %27 = getelementptr inbounds %struct.blake2s_state, ptr %3, i32 0, i32 4
  store ptr %26, ptr %27, align 8
  ret void
}

; Function Attrs: mustprogress uwtable
define linkonce_odr void @_ZN13blake2s_stateC2Ev(ptr noundef nonnull align 8 dereferenceable(281) %0) unnamed_addr #6 comdat align 2 {
  %2 = alloca ptr, align 8
  store ptr %0, ptr %2, align 8
  %3 = load ptr, ptr %2, align 8
  call void @_ZN13blake2s_state12set_pointersEv(ptr noundef nonnull align 8 dereferenceable(281) %3)
  ret void
}

; Function Attrs: mustprogress uwtable
define linkonce_odr void @_ZN14blake2sp_stateC2Ev(ptr noundef nonnull align 8 dereferenceable(3112) %0) unnamed_addr #6 comdat align 2 {
  %2 = alloca ptr, align 8
  store ptr %0, ptr %2, align 8
  %3 = load ptr, ptr %2, align 8
  %4 = getelementptr inbounds %struct.blake2sp_state, ptr %3, i32 0, i32 0
  %5 = getelementptr inbounds [8 x %struct.blake2s_state], ptr %4, i32 0, i32 0
  %6 = getelementptr inbounds %struct.blake2s_state, ptr %5, i64 8
  br label %7

7:                                                ; preds = %7, %1
  %8 = phi ptr [ %5, %1 ], [ %9, %7 ]
  call void @_ZN13blake2s_stateC2Ev(ptr noundef nonnull align 8 dereferenceable(281) %8)
  %9 = getelementptr inbounds %struct.blake2s_state, ptr %8, i64 1
  %10 = icmp eq ptr %9, %6
  br i1 %10, label %11, label %7

11:                                               ; preds = %7
  %12 = getelementptr inbounds %struct.blake2sp_state, ptr %3, i32 0, i32 1
  call void @_ZN13blake2s_stateC2Ev(ptr noundef nonnull align 8 dereferenceable(281) %12)
  ret void
}

; Function Attrs: mustprogress uwtable
define void @_ZN8DataHash4InitE9HASH_TYPEj(ptr noundef nonnull align 8 dereferenceable(16) %0, i32 noundef %1, i32 noundef %2) #6 align 2 personality ptr @__gxx_personality_v0 {
  %4 = alloca ptr, align 8
  %5 = alloca i32, align 4
  %6 = alloca i32, align 4
  %7 = alloca ptr, align 8
  %8 = alloca i32, align 4
  store ptr %0, ptr %4, align 8
  store i32 %1, ptr %5, align 4
  store i32 %2, ptr %6, align 4
  %9 = load ptr, ptr %4, align 8
  %10 = getelementptr inbounds %class.DataHash, ptr %9, i32 0, i32 2
  %11 = load ptr, ptr %10, align 8
  %12 = icmp eq ptr %11, null
  br i1 %12, label %13, label %21

13:                                               ; preds = %3
  %14 = call noalias noundef nonnull ptr @_Znwm(i64 noundef 3112) #12
  invoke void @_ZN14blake2sp_stateC2Ev(ptr noundef nonnull align 8 dereferenceable(3112) %14)
          to label %15 unwind label %17

15:                                               ; preds = %13
  %16 = getelementptr inbounds %class.DataHash, ptr %9, i32 0, i32 2
  store ptr %14, ptr %16, align 8
  br label %21

17:                                               ; preds = %13
  %18 = landingpad { ptr, i32 }
          cleanup
  %19 = extractvalue { ptr, i32 } %18, 0
  store ptr %19, ptr %7, align 8
  %20 = extractvalue { ptr, i32 } %18, 1
  store i32 %20, ptr %8, align 4
  call void @_ZdlPv(ptr noundef %14) #9
  br label %40

21:                                               ; preds = %15, %3
  %22 = load i32, ptr %5, align 4
  %23 = getelementptr inbounds %class.DataHash, ptr %9, i32 0, i32 0
  store i32 %22, ptr %23, align 8
  %24 = load i32, ptr %5, align 4
  %25 = icmp eq i32 %24, 1
  br i1 %25, label %26, label %28

26:                                               ; preds = %21
  %27 = getelementptr inbounds %class.DataHash, ptr %9, i32 0, i32 1
  store i32 0, ptr %27, align 4
  br label %28

28:                                               ; preds = %26, %21
  %29 = load i32, ptr %5, align 4
  %30 = icmp eq i32 %29, 2
  br i1 %30, label %31, label %33

31:                                               ; preds = %28
  %32 = getelementptr inbounds %class.DataHash, ptr %9, i32 0, i32 1
  store i32 -1, ptr %32, align 4
  br label %33

33:                                               ; preds = %31, %28
  %34 = load i32, ptr %5, align 4
  %35 = icmp eq i32 %34, 3
  br i1 %35, label %36, label %39

36:                                               ; preds = %33
  %37 = getelementptr inbounds %class.DataHash, ptr %9, i32 0, i32 2
  %38 = load ptr, ptr %37, align 8
  call void @_Z13blake2sp_initP14blake2sp_state(ptr noundef %38)
  br label %39

39:                                               ; preds = %36, %33
  ret void

40:                                               ; preds = %17
  %41 = load ptr, ptr %7, align 8
  %42 = load i32, ptr %8, align 4
  %43 = insertvalue { ptr, i32 } poison, ptr %41, 0
  %44 = insertvalue { ptr, i32 } %43, i32 %42, 1
  resume { ptr, i32 } %44
}