; Function Attrs: mustprogress uwtable
define void @_ZN8DataHash4InitE9HASH_TYPEj(ptr nocapture noundef nonnull align 8 dereferenceable(16) %0, i32 noundef %1, i32 noundef %2) local_unnamed_addr #8 align 2 personality ptr @__gxx_personality_v0 {
  %4 = getelementptr inbounds i8, ptr %0, i64 8
  %5 = load ptr, ptr %4, align 8
  %6 = icmp eq ptr %5, null
  br i1 %6, label %7, label %37

7:                                                ; preds = %3
  %8 = tail call noalias noundef nonnull dereferenceable(3112) ptr @_Znwm(i64 noundef 3112) #15
  br label %9

9:                                                ; preds = %9, %7
  %.idx.i = phi i64 [ 0, %7 ], [ %.add.i, %9 ]
  %.ptr.i = getelementptr inbounds i8, ptr %8, i64 %.idx.i
  %10 = ptrtoint ptr %.ptr.i to i64
  %11 = sub i64 0, %10
  %12 = and i64 %11, 56
  %13 = add i64 %12, %10
  %14 = inttoptr i64 %13 to ptr
  %15 = getelementptr inbounds i8, ptr %.ptr.i, i64 240
  store ptr %14, ptr %15, align 8
  %16 = getelementptr inbounds i8, ptr %14, i64 128
  %17 = getelementptr inbounds i8, ptr %.ptr.i, i64 248
  store ptr %16, ptr %17, align 8
  %18 = getelementptr inbounds i8, ptr %14, i64 160
  %19 = getelementptr inbounds i8, ptr %.ptr.i, i64 256
  store ptr %18, ptr %19, align 8
  %20 = getelementptr inbounds i8, ptr %14, i64 168
  %21 = getelementptr inbounds i8, ptr %.ptr.i, i64 264
  store ptr %20, ptr %21, align 8
  %.add.i = add nuw nsw i64 %.idx.i, 288
  %22 = icmp eq i64 %.add.i, 2304
  br i1 %22, label %23, label %9

23:                                               ; preds = %9
  %24 = getelementptr inbounds i8, ptr %8, i64 2304
  %25 = ptrtoint ptr %24 to i64
  %26 = sub i64 0, %25
  %27 = and i64 %26, 56
  %28 = add i64 %27, %25
  %29 = inttoptr i64 %28 to ptr
  %30 = getelementptr inbounds i8, ptr %8, i64 2544
  store ptr %29, ptr %30, align 8
  %31 = getelementptr inbounds i8, ptr %29, i64 128
  %32 = getelementptr inbounds i8, ptr %8, i64 2552
  store ptr %31, ptr %32, align 8
  %33 = getelementptr inbounds i8, ptr %29, i64 160
  %34 = getelementptr inbounds i8, ptr %8, i64 2560
  store ptr %33, ptr %34, align 8
  %35 = getelementptr inbounds i8, ptr %29, i64 168
  %36 = getelementptr inbounds i8, ptr %8, i64 2568
  store ptr %35, ptr %36, align 8
  store ptr %8, ptr %4, align 8
  br label %37

37:                                               ; preds = %23, %3
  %38 = phi ptr [ %8, %23 ], [ %5, %3 ]
  store i32 %1, ptr %0, align 8
  switch i32 %1, label %44 [
    i32 1, label %39
    i32 2, label %41
    i32 3, label %43
  ]

39:                                               ; preds = %37
  %40 = getelementptr inbounds i8, ptr %0, i64 4
  store i32 0, ptr %40, align 4
  br label %44

41:                                               ; preds = %37
  %42 = getelementptr inbounds i8, ptr %0, i64 4
  store i32 -1, ptr %42, align 4
  br label %44

43:                                               ; preds = %37
  tail call void @_Z13blake2sp_initP14blake2sp_state(ptr noundef nonnull %38)
  br label %44

44:                                               ; preds = %41, %39, %37, %43
  ret void
}